target datalayout = "e-m:e-p270:32:32-p271:32:32-p272:64:64-i64:64-i128:128-f80:128-n8:16:32:64-S128"
target triple = "x86_64-pc-linux-gnu"

%struct.xcgroup_t = type { ptr, ptr, ptr, i32, i32, i32 }

@.str.36 = private unnamed_addr constant [33 x i8] c"error unlocking cgroup '%s' : %m\00", align 1

; Function Attrs: nounwind uwtable
define dso_local i32 @common_cgroup_unlock(ptr noundef %0) #0 {
  %2 = alloca ptr, align 8
  %3 = alloca i32, align 4
  store ptr %0, ptr %2, align 8
  call void @llvm.lifetime.start.p0(i64 4, ptr %3) #6
  store i32 -1, ptr %3, align 4
  %4 = load ptr, ptr %2, align 8
  %5 = getelementptr inbounds nuw %struct.xcgroup_t, ptr %4, i32 0, i32 5
  %6 = load i32, ptr %5, align 8
  %7 = call i32 @flock(i32 noundef %6, i32 noundef 8) #6
  %8 = icmp slt i32 %7, 0
  br i1 %8, label %9, label %14

9:                                                ; preds = %1
  %10 = load ptr, ptr %2, align 8
  %11 = getelementptr inbounds nuw %struct.xcgroup_t, ptr %10, i32 0, i32 2
  %12 = load ptr, ptr %11, align 8
  %13 = call i32 (ptr, ...) @error(ptr noundef @.str.36, ptr noundef %12)
  br label %15

14:                                               ; preds = %1
  store i32 0, ptr %3, align 4
  br label %15

15:                                               ; preds = %14, %9
  %16 = load ptr, ptr %2, align 8
  %17 = getelementptr inbounds nuw %struct.xcgroup_t, ptr %16, i32 0, i32 5
  %18 = load i32, ptr %17, align 8
  %19 = call i32 @close(i32 noundef %18)
  %20 = load i32, ptr %3, align 4
  call void @llvm.lifetime.end.p0(i64 4, ptr %3) #6
  ret i32 %20
}