; Function Attrs: nounwind uwtable
define dso_local range(i32 -1, 1) i32 @common_cgroup_unlock(ptr noundef readonly captures(none) %0) local_unnamed_addr #0 {
  %2 = getelementptr inbounds nuw i8, ptr %0, i64 32
  %3 = load i32, ptr %2, align 8
  %4 = tail call i32 @flock(i32 noundef %3, i32 noundef 8) #8
  %5 = icmp slt i32 %4, 0
  br i1 %5, label %6, label %10

6:                                                ; preds = %1
  %7 = getelementptr inbounds nuw i8, ptr %0, i64 16
  %8 = load ptr, ptr %7, align 8
  %9 = tail call i32 (ptr, ...) @error(ptr noundef nonnull @.str.36, ptr noundef %8) #8
  br label %10

10:                                               ; preds = %1, %6
  %.0 = phi i32 [ -1, %6 ], [ 0, %1 ]
  %11 = load i32, ptr %2, align 8
  %12 = tail call i32 @close(i32 noundef %11) #8
  ret i32 %.0
}